target datalayout = "e-m:e-p270:32:32-p271:32:32-p272:64:64-i64:64-i128:128-f80:128-n8:16:32:64-S128"
target triple = "x86_64-pc-linux-gnu"

%struct._generic_N_Vector = type { ptr, ptr, ptr }
%struct._SUNQRData = type { ptr, ptr, ptr }

; Function Attrs: nounwind uwtable
define i32 @SUNQRAdd_ICWY_SB(ptr noundef %0, ptr noundef %1, ptr noundef %2, i32 noundef %3, i32 noundef %4, ptr noundef %5) #0 {
  %7 = alloca ptr, align 8
  %8 = alloca ptr, align 8
  %9 = alloca ptr, align 8
  %10 = alloca i32, align 4
  %11 = alloca i32, align 4
  %12 = alloca ptr, align 8
  %13 = alloca ptr, align 8
  %14 = alloca i64, align 8
  %15 = alloca i64, align 8
  %16 = alloca ptr, align 8
  store ptr %0, ptr %7, align 8, !tbaa !3
  store ptr %1, ptr %8, align 8, !tbaa !12
  store ptr %2, ptr %9, align 8, !tbaa !14
  store i32 %3, ptr %10, align 4, !tbaa !10
  store i32 %4, ptr %11, align 4, !tbaa !10
  store ptr %5, ptr %12, align 8, !tbaa !23
  call void @llvm.lifetime.start.p0(i64 8, ptr %13) #5
  %17 = load ptr, ptr %7, align 8, !tbaa !3
  %18 = getelementptr inbounds ptr, ptr %17, i64 0
  %19 = load ptr, ptr %18, align 8, !tbaa !14
  %20 = getelementptr inbounds nuw %struct._generic_N_Vector, ptr %19, i32 0, i32 2
  %21 = load ptr, ptr %20, align 8, !tbaa !16
  store ptr %21, ptr %13, align 8, !tbaa !20
  call void @llvm.lifetime.start.p0(i64 8, ptr %14) #5
  call void @llvm.lifetime.start.p0(i64 8, ptr %15) #5
  call void @llvm.lifetime.start.p0(i64 8, ptr %16) #5
  %22 = load ptr, ptr %12, align 8, !tbaa !23
  store ptr %22, ptr %16, align 8, !tbaa !24
  %23 = load ptr, ptr %9, align 8, !tbaa !14
  %24 = load ptr, ptr %16, align 8, !tbaa !24
  %25 = getelementptr inbounds nuw %struct._SUNQRData, ptr %24, i32 0, i32 0
  %26 = load ptr, ptr %25, align 8, !tbaa !26
  call void @N_VScale(double noundef 1.000000e+00, ptr noundef %23, ptr noundef %26)
  %27 = load i32, ptr %10, align 4, !tbaa !10
  %28 = icmp sgt i32 %27, 0
  br i1 %28, label %29, label %200

29:                                               ; preds = %6
  %30 = load i32, ptr %10, align 4, !tbaa !10
  %31 = load ptr, ptr %7, align 8, !tbaa !3
  %32 = load i32, ptr %10, align 4, !tbaa !10
  %33 = sub nsw i32 %32, 1
  %34 = sext i32 %33 to i64
  %35 = getelementptr inbounds ptr, ptr %31, i64 %34
  %36 = load ptr, ptr %35, align 8, !tbaa !14
  %37 = load ptr, ptr %7, align 8, !tbaa !3
  %38 = load ptr, ptr %16, align 8, !tbaa !24
  %39 = getelementptr inbounds nuw %struct._SUNQRData, ptr %38, i32 0, i32 2
  %40 = load ptr, ptr %39, align 8, !tbaa !30
  %41 = load i32, ptr %10, align 4, !tbaa !10
  %42 = sub nsw i32 %41, 1
  %43 = load i32, ptr %11, align 4, !tbaa !10
  %44 = mul nsw i32 %42, %43
  %45 = sext i32 %44 to i64
  %46 = getelementptr inbounds double, ptr %40, i64 %45
  %47 = call i32 @N_VDotProdMultiLocal(i32 noundef %30, ptr noundef %36, ptr noundef %37, ptr noundef %46)
  %48 = load i32, ptr %10, align 4, !tbaa !10
  %49 = load ptr, ptr %16, align 8, !tbaa !24
  %50 = getelementptr inbounds nuw %struct._SUNQRData, ptr %49, i32 0, i32 0
  %51 = load ptr, ptr %50, align 8, !tbaa !26
  %52 = load ptr, ptr %7, align 8, !tbaa !3
  %53 = load ptr, ptr %16, align 8, !tbaa !24
  %54 = getelementptr inbounds nuw %struct._SUNQRData, ptr %53, i32 0, i32 2
  %55 = load ptr, ptr %54, align 8, !tbaa !30
  %56 = load i32, ptr %10, align 4, !tbaa !10
  %57 = sub nsw i32 %56, 1
  %58 = load i32, ptr %11, align 4, !tbaa !10
  %59 = mul nsw i32 %57, %58
  %60 = sext i32 %59 to i64
  %61 = getelementptr inbounds double, ptr %55, i64 %60
  %62 = load i32, ptr %10, align 4, !tbaa !10
  %63 = sext i32 %62 to i64
  %64 = getelementptr inbounds double, ptr %61, i64 %63
  %65 = call i32 @N_VDotProdMultiLocal(i32 noundef %48, ptr noundef %51, ptr noundef %52, ptr noundef %64)
  %66 = load i32, ptr %10, align 4, !tbaa !10
  %67 = load i32, ptr %10, align 4, !tbaa !10
  %68 = add nsw i32 %66, %67
  %69 = load ptr, ptr %16, align 8, !tbaa !24
  %70 = getelementptr inbounds nuw %struct._SUNQRData, ptr %69, i32 0, i32 0
  %71 = load ptr, ptr %70, align 8, !tbaa !26
  %72 = load ptr, ptr %16, align 8, !tbaa !24
  %73 = getelementptr inbounds nuw %struct._SUNQRData, ptr %72, i32 0, i32 2
  %74 = load ptr, ptr %73, align 8, !tbaa !30
  %75 = load i32, ptr %10, align 4, !tbaa !10
  %76 = sub nsw i32 %75, 1
  %77 = load i32, ptr %11, align 4, !tbaa !10
  %78 = mul nsw i32 %76, %77
  %79 = sext i32 %78 to i64
  %80 = getelementptr inbounds double, ptr %74, i64 %79
  %81 = call i32 @N_VDotProdMultiAllReduce(i32 noundef %68, ptr noundef %71, ptr noundef %80)
  store i64 0, ptr %15, align 8, !tbaa !28
  br label %82

82:                                               ; preds = %110, %29
  %83 = load i64, ptr %15, align 8, !tbaa !28
  %84 = load i32, ptr %10, align 4, !tbaa !10
  %85 = sext i32 %84 to i64
  %86 = icmp slt i64 %83, %85
  br i1 %86, label %87, label %113

87:                                               ; preds = %82
  %88 = load ptr, ptr %16, align 8, !tbaa !24
  %89 = getelementptr inbounds nuw %struct._SUNQRData, ptr %88, i32 0, i32 2
  %90 = load ptr, ptr %89, align 8, !tbaa !30
  %91 = load i32, ptr %10, align 4, !tbaa !10
  %92 = sub nsw i32 %91, 1
  %93 = load i32, ptr %11, align 4, !tbaa !10
  %94 = mul nsw i32 %92, %93
  %95 = load i32, ptr %10, align 4, !tbaa !10
  %96 = add nsw i32 %94, %95
  %97 = sext i32 %96 to i64
  %98 = load i64, ptr %15, align 8, !tbaa !28
  %99 = add nsw i64 %97, %98
  %100 = getelementptr inbounds double, ptr %90, i64 %99
  %101 = load double, ptr %100, align 8, !tbaa !21
  %102 = load ptr, ptr %8, align 8, !tbaa !12
  %103 = load i32, ptr %10, align 4, !tbaa !10
  %104 = load i32, ptr %11, align 4, !tbaa !10
  %105 = mul nsw i32 %103, %104
  %106 = sext i32 %105 to i64
  %107 = load i64, ptr %15, align 8, !tbaa !28
  %108 = add nsw i64 %106, %107
  %109 = getelementptr inbounds double, ptr %102, i64 %108
  store double %101, ptr %109, align 8, !tbaa !21
  br label %110

110:                                              ; preds = %87
  %111 = load i64, ptr %15, align 8, !tbaa !28
  %112 = add nsw i64 %111, 1
  store i64 %112, ptr %15, align 8, !tbaa !28
  br label %82

113:                                              ; preds = %82
  %114 = load ptr, ptr %16, align 8, !tbaa !24
  %115 = getelementptr inbounds nuw %struct._SUNQRData, ptr %114, i32 0, i32 2
  %116 = load ptr, ptr %115, align 8, !tbaa !30
  %117 = load i32, ptr %10, align 4, !tbaa !10
  %118 = sub nsw i32 %117, 1
  %119 = load i32, ptr %11, align 4, !tbaa !10
  %120 = mul nsw i32 %118, %119
  %121 = load i32, ptr %10, align 4, !tbaa !10
  %122 = sub nsw i32 %121, 1
  %123 = add nsw i32 %120, %122
  %124 = sext i32 %123 to i64
  %125 = getelementptr inbounds double, ptr %116, i64 %124
  store double 1.000000e+00, ptr %125, align 8, !tbaa !21
  store i64 0, ptr %15, align 8, !tbaa !28
  br label %126

126:                                              ; preds = %175, %113
  %127 = load i64, ptr %15, align 8, !tbaa !28
  %128 = load i32, ptr %10, align 4, !tbaa !10
  %129 = sext i32 %128 to i64
  %130 = icmp slt i64 %127, %129
  br i1 %130, label %131, label %178

131:                                              ; preds = %126
  %132 = load i64, ptr %15, align 8, !tbaa !28
  %133 = add nsw i64 %132, 1
  store i64 %133, ptr %14, align 8, !tbaa !28
  br label %134

134:                                              ; preds = %171, %131
  %135 = load i64, ptr %14, align 8, !tbaa !28
  %136 = load i32, ptr %10, align 4, !tbaa !10
  %137 = sext i32 %136 to i64
  %138 = icmp slt i64 %135, %137
  br i1 %138, label %139, label %174

139:                                              ; preds = %134
  %140 = load ptr, ptr %8, align 8, !tbaa !12
  %141 = load i32, ptr %10, align 4, !tbaa !10
  %142 = load i32, ptr %11, align 4, !tbaa !10
  %143 = mul nsw i32 %141, %142
  %144 = sext i32 %143 to i64
  %145 = load i64, ptr %15, align 8, !tbaa !28
  %146 = add nsw i64 %144, %145
  %147 = getelementptr inbounds double, ptr %140, i64 %146
  %148 = load double, ptr %147, align 8, !tbaa !21
  %149 = load ptr, ptr %16, align 8, !tbaa !24
  %150 = getelementptr inbounds nuw %struct._SUNQRData, ptr %149, i32 0, i32 2
  %151 = load ptr, ptr %150, align 8, !tbaa !30
  %152 = load i64, ptr %14, align 8, !tbaa !28
  %153 = load i32, ptr %11, align 4, !tbaa !10
  %154 = sext i32 %153 to i64
  %155 = mul nsw i64 %152, %154
  %156 = load i64, ptr %15, align 8, !tbaa !28
  %157 = add nsw i64 %155, %156
  %158 = getelementptr inbounds double, ptr %151, i64 %157
  %159 = load double, ptr %158, align 8, !tbaa !21
  %160 = load ptr, ptr %8, align 8, !tbaa !12
  %161 = load i32, ptr %10, align 4, !tbaa !10
  %162 = load i32, ptr %11, align 4, !tbaa !10
  %163 = mul nsw i32 %161, %162
  %164 = sext i32 %163 to i64
  %165 = load i64, ptr %14, align 8, !tbaa !28
  %166 = add nsw i64 %164, %165
  %167 = getelementptr inbounds double, ptr %160, i64 %166
  %168 = load double, ptr %167, align 8, !tbaa !21
  %169 = fneg double %148
  %170 = call double @llvm.fmuladd.f64(double %169, double %159, double %168)
  store double %170, ptr %167, align 8, !tbaa !21
  br label %171

171:                                              ; preds = %139
  %172 = load i64, ptr %14, align 8, !tbaa !28
  %173 = add nsw i64 %172, 1
  store i64 %173, ptr %14, align 8, !tbaa !28
  br label %134

174:                                              ; preds = %134
  br label %175

175:                                              ; preds = %174
  %176 = load i64, ptr %15, align 8, !tbaa !28
  %177 = add nsw i64 %176, 1
  store i64 %177, ptr %15, align 8, !tbaa !28
  br label %126

178:                                              ; preds = %126
  %179 = load i32, ptr %10, align 4, !tbaa !10
  %180 = load ptr, ptr %8, align 8, !tbaa !12
  %181 = load i32, ptr %10, align 4, !tbaa !10
  %182 = load i32, ptr %11, align 4, !tbaa !10
  %183 = mul nsw i32 %181, %182
  %184 = sext i32 %183 to i64
  %185 = getelementptr inbounds double, ptr %180, i64 %184
  %186 = load ptr, ptr %7, align 8, !tbaa !3
  %187 = load ptr, ptr %16, align 8, !tbaa !24
  %188 = getelementptr inbounds nuw %struct._SUNQRData, ptr %187, i32 0, i32 1
  %189 = load ptr, ptr %188, align 8, !tbaa !31
  %190 = call i32 @N_VLinearCombination(i32 noundef %179, ptr noundef %185, ptr noundef %186, ptr noundef %189)
  %191 = load ptr, ptr %16, align 8, !tbaa !24
  %192 = getelementptr inbounds nuw %struct._SUNQRData, ptr %191, i32 0, i32 0
  %193 = load ptr, ptr %192, align 8, !tbaa !26
  %194 = load ptr, ptr %16, align 8, !tbaa !24
  %195 = getelementptr inbounds nuw %struct._SUNQRData, ptr %194, i32 0, i32 1
  %196 = load ptr, ptr %195, align 8, !tbaa !31
  %197 = load ptr, ptr %16, align 8, !tbaa !24
  %198 = getelementptr inbounds nuw %struct._SUNQRData, ptr %197, i32 0, i32 0
  %199 = load ptr, ptr %198, align 8, !tbaa !26
  call void @N_VLinearSum(double noundef 1.000000e+00, ptr noundef %193, double noundef -1.000000e+00, ptr noundef %196, ptr noundef %199)
  br label %200

200:                                              ; preds = %178, %6
  %201 = load ptr, ptr %16, align 8, !tbaa !24
  %202 = getelementptr inbounds nuw %struct._SUNQRData, ptr %201, i32 0, i32 0
  %203 = load ptr, ptr %202, align 8, !tbaa !26
  %204 = load ptr, ptr %16, align 8, !tbaa !24
  %205 = getelementptr inbounds nuw %struct._SUNQRData, ptr %204, i32 0, i32 0
  %206 = load ptr, ptr %205, align 8, !tbaa !26
  %207 = call double @N_VDotProd(ptr noundef %203, ptr noundef %206)
  %208 = load ptr, ptr %8, align 8, !tbaa !12
  %209 = load i32, ptr %10, align 4, !tbaa !10
  %210 = load i32, ptr %11, align 4, !tbaa !10
  %211 = mul nsw i32 %209, %210
  %212 = load i32, ptr %10, align 4, !tbaa !10
  %213 = add nsw i32 %211, %212
  %214 = sext i32 %213 to i64
  %215 = getelementptr inbounds double, ptr %208, i64 %214
  store double %207, ptr %215, align 8, !tbaa !21
  %216 = load ptr, ptr %8, align 8, !tbaa !12
  %217 = load i32, ptr %10, align 4, !tbaa !10
  %218 = load i32, ptr %11, align 4, !tbaa !10
  %219 = mul nsw i32 %217, %218
  %220 = load i32, ptr %10, align 4, !tbaa !10
  %221 = add nsw i32 %219, %220
  %222 = sext i32 %221 to i64
  %223 = getelementptr inbounds double, ptr %216, i64 %222
  %224 = load double, ptr %223, align 8, !tbaa !21
  %225 = fcmp ole double %224, 0.000000e+00
  br i1 %225, label %226, label %227

226:                                              ; preds = %200
  br label %238

227:                                              ; preds = %200
  %228 = load ptr, ptr %8, align 8, !tbaa !12
  %229 = load i32, ptr %10, align 4, !tbaa !10
  %230 = load i32, ptr %11, align 4, !tbaa !10
  %231 = mul nsw i32 %229, %230
  %232 = load i32, ptr %10, align 4, !tbaa !10
  %233 = add nsw i32 %231, %232
  %234 = sext i32 %233 to i64
  %235 = getelementptr inbounds double, ptr %228, i64 %234
  %236 = load double, ptr %235, align 8, !tbaa !21
  %237 = call double @sqrt(double noundef %236) #5, !tbaa !10
  br label %238

238:                                              ; preds = %227, %226
  %239 = phi double [ 0.000000e+00, %226 ], [ %237, %227 ]
  %240 = load ptr, ptr %8, align 8, !tbaa !12
  %241 = load i32, ptr %10, align 4, !tbaa !10
  %242 = load i32, ptr %11, align 4, !tbaa !10
  %243 = mul nsw i32 %241, %242
  %244 = load i32, ptr %10, align 4, !tbaa !10
  %245 = add nsw i32 %243, %244
  %246 = sext i32 %245 to i64
  %247 = getelementptr inbounds double, ptr %240, i64 %246
  store double %239, ptr %247, align 8, !tbaa !21
  %248 = load ptr, ptr %8, align 8, !tbaa !12
  %249 = load i32, ptr %10, align 4, !tbaa !10
  %250 = load i32, ptr %11, align 4, !tbaa !10
  %251 = mul nsw i32 %249, %250
  %252 = load i32, ptr %10, align 4, !tbaa !10
  %253 = add nsw i32 %251, %252
  %254 = sext i32 %253 to i64
  %255 = getelementptr inbounds double, ptr %248, i64 %254
  %256 = load double, ptr %255, align 8, !tbaa !21
  %257 = fdiv double 1.000000e+00, %256
  %258 = load ptr, ptr %16, align 8, !tbaa !24
  %259 = getelementptr inbounds nuw %struct._SUNQRData, ptr %258, i32 0, i32 0
  %260 = load ptr, ptr %259, align 8, !tbaa !26
  %261 = load ptr, ptr %7, align 8, !tbaa !3
  %262 = load i32, ptr %10, align 4, !tbaa !10
  %263 = sext i32 %262 to i64
  %264 = getelementptr inbounds ptr, ptr %261, i64 %263
  %265 = load ptr, ptr %264, align 8, !tbaa !14
  call void @N_VScale(double noundef %257, ptr noundef %260, ptr noundef %265)
  call void @llvm.lifetime.end.p0(i64 8, ptr %16) #5
  call void @llvm.lifetime.end.p0(i64 8, ptr %15) #5
  call void @llvm.lifetime.end.p0(i64 8, ptr %14) #5
  call void @llvm.lifetime.end.p0(i64 8, ptr %13) #5
  ret i32 0
}