; Function Attrs: nounwind uwtable
define noundef i32 @SUNQRAdd_ICWY_SB(ptr noundef %0, ptr noundef %1, ptr noundef %2, i32 noundef %3, i32 noundef %4, ptr noundef readonly captures(none) %5) local_unnamed_addr #0 {
  %7 = load ptr, ptr %5, align 8, !tbaa !14
  tail call void @N_VScale(double noundef 1.000000e+00, ptr noundef %2, ptr noundef %7) #7
  %8 = icmp sgt i32 %3, 0
  br i1 %8, label %9, label %61

9:                                                ; preds = %6
  %10 = add nsw i32 %3, -1
  %11 = zext nneg i32 %10 to i64
  %12 = getelementptr inbounds nuw ptr, ptr %0, i64 %11
  %13 = load ptr, ptr %12, align 8, !tbaa !3
  %14 = getelementptr inbounds nuw i8, ptr %5, i64 16
  %15 = load ptr, ptr %14, align 8, !tbaa !16
  %16 = mul nsw i32 %10, %4
  %17 = sext i32 %16 to i64
  %18 = getelementptr inbounds double, ptr %15, i64 %17
  %19 = tail call i32 @N_VDotProdMultiLocal(i32 noundef %3, ptr noundef %13, ptr noundef %0, ptr noundef %18) #7
  %20 = load ptr, ptr %5, align 8, !tbaa !14
  %21 = load ptr, ptr %14, align 8, !tbaa !16
  %22 = getelementptr inbounds double, ptr %21, i64 %17
  %23 = zext nneg i32 %3 to i64
  %24 = getelementptr inbounds nuw double, ptr %22, i64 %23
  %25 = tail call i32 @N_VDotProdMultiLocal(i32 noundef %3, ptr noundef %20, ptr noundef %0, ptr noundef nonnull %24) #7
  %26 = shl nuw nsw i32 %3, 1
  %27 = load ptr, ptr %5, align 8, !tbaa !14
  %28 = load ptr, ptr %14, align 8, !tbaa !16
  %29 = getelementptr inbounds double, ptr %28, i64 %17
  %30 = tail call i32 @N_VDotProdMultiAllReduce(i32 noundef %26, ptr noundef %27, ptr noundef %29) #7
  %31 = load ptr, ptr %14, align 8, !tbaa !16
  %32 = add nsw i32 %16, %3
  %33 = sext i32 %32 to i64
  %invariant.gep = getelementptr double, ptr %31, i64 %33
  %34 = mul nsw i32 %4, %3
  %35 = sext i32 %34 to i64
  %invariant.gep97 = getelementptr double, ptr %1, i64 %35
  br label %36

36:                                               ; preds = %9, %36
  %.09399 = phi i64 [ 0, %9 ], [ %38, %36 ]
  %gep = getelementptr double, ptr %invariant.gep, i64 %.09399
  %37 = load double, ptr %gep, align 8, !tbaa !12
  %gep98 = getelementptr double, ptr %invariant.gep97, i64 %.09399
  store double %37, ptr %gep98, align 8, !tbaa !12
  %38 = add nuw nsw i64 %.09399, 1
  %exitcond.not = icmp eq i64 %38, %23
  br i1 %exitcond.not, label %39, label %36

39:                                               ; preds = %36
  %40 = add nsw i32 %16, %10
  %41 = sext i32 %40 to i64
  %42 = getelementptr inbounds double, ptr %31, i64 %41
  store double 1.000000e+00, ptr %42, align 8, !tbaa !12
  %43 = sext i32 %4 to i64
  br label %44

.loopexit:                                        ; preds = %47, %44
  %exitcond109.not = icmp eq i64 %45, %23
  br i1 %exitcond109.not, label %55, label %44

44:                                               ; preds = %39, %.loopexit
  %.1105 = phi i64 [ 0, %39 ], [ %45, %.loopexit ]
  %45 = add nuw nsw i64 %.1105, 1
  %invariant.gep100 = getelementptr double, ptr %31, i64 %.1105
  %46 = icmp samesign ult i64 %45, %23
  br i1 %46, label %.lr.ph, label %.loopexit

.lr.ph:                                           ; preds = %44
  %gep107 = getelementptr double, ptr %invariant.gep97, i64 %.1105
  br label %47

47:                                               ; preds = %.lr.ph, %47
  %.0102 = phi i64 [ %45, %.lr.ph ], [ %54, %47 ]
  %48 = load double, ptr %gep107, align 8, !tbaa !12
  %49 = mul nsw i64 %.0102, %43
  %gep101 = getelementptr double, ptr %invariant.gep100, i64 %49
  %50 = load double, ptr %gep101, align 8, !tbaa !12
  %gep104 = getelementptr double, ptr %invariant.gep97, i64 %.0102
  %51 = load double, ptr %gep104, align 8, !tbaa !12
  %52 = fneg double %48
  %53 = tail call double @llvm.fmuladd.f64(double %52, double %50, double %51)
  store double %53, ptr %gep104, align 8, !tbaa !12
  %54 = add nuw nsw i64 %.0102, 1
  %exitcond108.not = icmp eq i64 %54, %23
  br i1 %exitcond108.not, label %.loopexit, label %47

55:                                               ; preds = %.loopexit
  %56 = getelementptr inbounds nuw i8, ptr %5, i64 8
  %57 = load ptr, ptr %56, align 8, !tbaa !17
  %58 = tail call i32 @N_VLinearCombination(i32 noundef %3, ptr noundef %invariant.gep97, ptr noundef %0, ptr noundef %57) #7
  %59 = load ptr, ptr %5, align 8, !tbaa !14
  %60 = load ptr, ptr %56, align 8, !tbaa !17
  tail call void @N_VLinearSum(double noundef 1.000000e+00, ptr noundef %59, double noundef -1.000000e+00, ptr noundef %60, ptr noundef %59) #7
  br label %61

61:                                               ; preds = %55, %6
  %62 = load ptr, ptr %5, align 8, !tbaa !14
  %63 = tail call double @N_VDotProd(ptr noundef %62, ptr noundef %62) #7
  %64 = fcmp ugt double %63, 0.000000e+00
  br i1 %64, label %65, label %67

65:                                               ; preds = %61
  %66 = tail call double @sqrt(double noundef %63) #7, !tbaa !8
  br label %67

67:                                               ; preds = %61, %65
  %68 = phi double [ %66, %65 ], [ 0.000000e+00, %61 ]
  %69 = add i32 %4, 1
  %70 = mul i32 %69, %3
  %71 = sext i32 %70 to i64
  %72 = getelementptr inbounds double, ptr %1, i64 %71
  store double %68, ptr %72, align 8, !tbaa !12
  %73 = fdiv double 1.000000e+00, %68
  %74 = load ptr, ptr %5, align 8, !tbaa !14
  %75 = sext i32 %3 to i64
  %76 = getelementptr inbounds ptr, ptr %0, i64 %75
  %77 = load ptr, ptr %76, align 8, !tbaa !3
  tail call void @N_VScale(double noundef %73, ptr noundef %74, ptr noundef %77) #7
  ret i32 0
}